target datalayout = "e-m:e-p270:32:32-p271:32:32-p272:64:64-i64:64-i128:128-f80:128-n8:16:32:64-S128"
target triple = "x86_64-pc-linux-gnu"

%"class.cvc5::internal::smt::QuantElimSolver" = type { %"class.cvc5::internal::EnvObj", ptr, ptr }
%"class.cvc5::internal::EnvObj" = type { ptr, ptr }

@_ZTVN4cvc58internal3smt15QuantElimSolverE = hidden unnamed_addr constant { [4 x ptr] } { [4 x ptr] [ptr null, ptr @_ZTIN4cvc58internal3smt15QuantElimSolverE, ptr @_ZN4cvc58internal3smt15QuantElimSolverD1Ev, ptr @_ZN4cvc58internal3smt15QuantElimSolverD0Ev] }, align 8

; Function Attrs: mustprogress uwtable
define hidden void @_ZN4cvc58internal3smt15QuantElimSolverC2ERNS0_3EnvERNS1_9SmtSolverEPNS1_14ContextManagerE(ptr noundef nonnull align 8 dereferenceable(32) %0, ptr noundef nonnull align 8 dereferenceable(696) %1, ptr noundef nonnull align 8 dereferenceable(1288) %2, ptr noundef %3) unnamed_addr #6 align 2 {
  %5 = alloca ptr, align 8
  %6 = alloca ptr, align 8
  %7 = alloca ptr, align 8
  %8 = alloca ptr, align 8
  store ptr %0, ptr %5, align 8, !tbaa !16
  store ptr %1, ptr %6, align 8, !tbaa !18
  store ptr %2, ptr %7, align 8, !tbaa !20
  store ptr %3, ptr %8, align 8, !tbaa !22
  %9 = load ptr, ptr %5, align 8
  %10 = load ptr, ptr %6, align 8, !tbaa !18
  call void @_ZN4cvc58internal6EnvObjC2ERNS0_3EnvE(ptr noundef nonnull align 8 dereferenceable(16) %9, ptr noundef nonnull align 8 dereferenceable(696) %10)
  store ptr getelementptr inbounds inrange(-16, 16) ({ [4 x ptr] }, ptr @_ZTVN4cvc58internal3smt15QuantElimSolverE, i32 0, i32 0, i32 2), ptr %9, align 8, !tbaa !24
  %11 = getelementptr inbounds nuw %"class.cvc5::internal::smt::QuantElimSolver", ptr %9, i32 0, i32 1
  %12 = load ptr, ptr %7, align 8, !tbaa !20
  store ptr %12, ptr %11, align 8, !tbaa !20
  %13 = getelementptr inbounds nuw %"class.cvc5::internal::smt::QuantElimSolver", ptr %9, i32 0, i32 2
  %14 = load ptr, ptr %8, align 8, !tbaa !22
  store ptr %14, ptr %13, align 8, !tbaa !26
  ret void
}